target datalayout = "e-m:e-p270:32:32-p271:32:32-p272:64:64-i64:64-i128:128-f80:128-n8:16:32:64-S128"
target triple = "x86_64-pc-linux-gnu"

%struct.rb_ast_struct = type { ptr, %struct.rb_ast_body_struct }
%struct.rb_ast_body_struct = type { ptr, ptr, i32, i8 }

@COMPILE_OPTION_DEFAULT = internal global { i8, i8, [2 x i8], i32 } { i8 -37, i8 2, [2 x i8] zeroinitializer, i32 0 }, align 4

; Function Attrs: nounwind sspstrong uwtable
define internal i64 @iseq_setup_coverage(i64 noundef %0, i64 noundef %1, i32 noundef %2) #0 {
  %4 = alloca i64, align 8
  %5 = alloca i64, align 8
  %6 = alloca i64, align 8
  %7 = alloca i32, align 4
  %8 = alloca i32, align 4
  %9 = alloca i64, align 8
  store i64 %0, ptr %5, align 8, !tbaa !17
  store i64 %1, ptr %6, align 8, !tbaa !17
  store i32 %2, ptr %7, align 4, !tbaa !56
  %10 = load i32, ptr %7, align 4, !tbaa !56
  %11 = icmp sge i32 %10, 0
  br i1 %11, label %12, label %28

12:                                               ; preds = %3
  call void @llvm.lifetime.start.p0(i64 4, ptr %8) #24
  %13 = call i32 @rb_get_coverage_mode()
  %14 = and i32 %13, 8
  %15 = icmp ne i32 %14, 0
  br i1 %15, label %16, label %17

16:                                               ; preds = %12
  br label %19

17:                                               ; preds = %12
  %18 = load i32, ptr %7, align 4, !tbaa !56
  br label %19

19:                                               ; preds = %17, %16
  %20 = phi i32 [ 0, %16 ], [ %18, %17 ]
  store i32 %20, ptr %8, align 4, !tbaa !56
  call void @llvm.lifetime.start.p0(i64 8, ptr %9) #24
  %21 = load i32, ptr %8, align 4, !tbaa !56
  %22 = call i64 @rb_default_coverage(i32 noundef %21)
  store i64 %22, ptr %9, align 8, !tbaa !17
  %23 = load i64, ptr %5, align 8, !tbaa !17
  %24 = load i64, ptr %6, align 8, !tbaa !17
  %25 = load i64, ptr %9, align 8, !tbaa !17
  %26 = call i64 @rb_hash_aset(i64 noundef %23, i64 noundef %24, i64 noundef %25)
  %27 = load i64, ptr %9, align 8, !tbaa !17
  store i64 %27, ptr %4, align 8
  call void @llvm.lifetime.end.p0(i64 8, ptr %9) #24
  call void @llvm.lifetime.end.p0(i64 4, ptr %8) #24
  br label %29

28:                                               ; preds = %3
  store i64 4, ptr %4, align 8
  br label %29

29:                                               ; preds = %28, %19
  %30 = load i64, ptr %4, align 8
  ret i64 %30
}

; Function Attrs: nounwind sspstrong uwtable
define internal i32 @ast_line_count(i64 noundef %0) #0 {
  %2 = alloca i64, align 8
  %3 = alloca ptr, align 8
  store i64 %0, ptr %2, align 8, !tbaa !17
  call void @llvm.lifetime.start.p0(i64 8, ptr %3) #24
  %4 = load i64, ptr %2, align 8, !tbaa !17
  %5 = call ptr @rb_ruby_ast_data_get(i64 noundef %4)
  store ptr %5, ptr %3, align 8, !tbaa !161
  %6 = load ptr, ptr %3, align 8, !tbaa !161
  %7 = getelementptr inbounds nuw %struct.rb_ast_struct, ptr %6, i32 0, i32 1
  %8 = getelementptr inbounds nuw %struct.rb_ast_body_struct, ptr %7, i32 0, i32 2
  %9 = load i32, ptr %8, align 8, !tbaa !175
  call void @llvm.lifetime.end.p0(i64 8, ptr %3) #24
  ret i32 %9
}

; Function Attrs: inlinehint nounwind sspstrong willreturn memory(none) uwtable
define internal zeroext i1 @RB_TEST(i64 noundef %0) #7 {
  %2 = alloca i64, align 8
  store i64 %0, ptr %2, align 8, !tbaa !17
  %3 = load i64, ptr %2, align 8, !tbaa !17
  %4 = and i64 %3, -5
  %5 = icmp ne i64 %4, 0
  ret i1 %5
}

; Function Attrs: nounwind sspstrong uwtable
define dso_local ptr @rb_iseq_new_eval(i64 noundef %0, i64 noundef %1, i64 noundef %2, i64 noundef %3, i32 noundef %4, ptr noundef %5, i32 noundef %6) #0 {
  %8 = alloca i64, align 8
  %9 = alloca i64, align 8
  %10 = alloca i64, align 8
  %11 = alloca i64, align 8
  %12 = alloca i32, align 4
  %13 = alloca ptr, align 8
  %14 = alloca i32, align 4
  %15 = alloca i64, align 8
  store i64 %0, ptr %8, align 8, !tbaa !17
  store i64 %1, ptr %9, align 8, !tbaa !17
  store i64 %2, ptr %10, align 8, !tbaa !17
  store i64 %3, ptr %11, align 8, !tbaa !17
  store i32 %4, ptr %12, align 4, !tbaa !56
  store ptr %5, ptr %13, align 8, !tbaa !7
  store i32 %6, ptr %14, align 4, !tbaa !56
  %16 = call i32 @rb_get_coverage_mode()
  %17 = and i32 %16, 16
  %18 = icmp ne i32 %17, 0
  br i1 %18, label %19, label %41

19:                                               ; preds = %7
  call void @llvm.lifetime.start.p0(i64 8, ptr %15) #24
  %20 = call i64 @rb_get_coverages()
  store i64 %20, ptr %15, align 8, !tbaa !17
  %21 = load i64, ptr %15, align 8, !tbaa !17
  %22 = call zeroext i1 @RB_TEST(i64 noundef %21) #28
  br i1 %22, label %23, label %40

23:                                               ; preds = %19
  %24 = load i64, ptr %10, align 8, !tbaa !17
  %25 = call zeroext i1 @RB_TEST(i64 noundef %24) #28
  br i1 %25, label %26, label %40

26:                                               ; preds = %23
  %27 = load i64, ptr %15, align 8, !tbaa !17
  %28 = load i64, ptr %10, align 8, !tbaa !17
  %29 = call i64 @rb_hash_has_key(i64 noundef %27, i64 noundef %28)
  %30 = call zeroext i1 @RB_TEST(i64 noundef %29) #28
  br i1 %30, label %40, label %31

31:                                               ; preds = %26
  %32 = load i64, ptr %15, align 8, !tbaa !17
  %33 = load i64, ptr %10, align 8, !tbaa !17
  %34 = load i64, ptr %8, align 8, !tbaa !17
  %35 = call i32 @ast_line_count(i64 noundef %34)
  %36 = load i32, ptr %12, align 4, !tbaa !56
  %37 = add i32 %35, %36
  %38 = sub i32 %37, 1
  %39 = call i64 @iseq_setup_coverage(i64 noundef %32, i64 noundef %33, i32 noundef %38)
  br label %40

40:                                               ; preds = %31, %26, %23, %19
  call void @llvm.lifetime.end.p0(i64 8, ptr %15) #24
  br label %41

41:                                               ; preds = %40, %7
  %42 = load i64, ptr %8, align 8, !tbaa !17
  %43 = load i64, ptr %9, align 8, !tbaa !17
  %44 = load i64, ptr %10, align 8, !tbaa !17
  %45 = load i64, ptr %11, align 8, !tbaa !17
  %46 = load i32, ptr %12, align 4, !tbaa !56
  %47 = load ptr, ptr %13, align 8, !tbaa !7
  %48 = load i32, ptr %14, align 4, !tbaa !56
  %49 = call ptr @rb_iseq_new_with_opt(i64 noundef %42, i64 noundef %43, i64 noundef %44, i64 noundef %45, i32 noundef %46, ptr noundef %47, i32 noundef %48, i32 noundef 6, ptr noundef @COMPILE_OPTION_DEFAULT, i64 noundef 4)
  ret ptr %49
}