; Function Attrs: nounwind sspstrong uwtable
define dso_local ptr @rb_iseq_new_eval(i64 noundef %0, i64 noundef %1, i64 noundef %2, i64 noundef %3, i32 noundef %4, ptr noundef %5, i32 noundef %6) local_unnamed_addr #0 {
  %8 = tail call i32 @rb_get_coverage_mode() #20
  %9 = and i32 %8, 16
  %.not = icmp eq i32 %9, 0
  br i1 %.not, label %iseq_setup_coverage.exit, label %10

10:                                               ; preds = %7
  %11 = tail call i64 @rb_get_coverages() #20
  %12 = and i64 %11, -5
  %13 = icmp ne i64 %12, 0
  %14 = and i64 %2, -5
  %15 = icmp ne i64 %14, 0
  %or.cond = and i1 %15, %13
  br i1 %or.cond, label %16, label %iseq_setup_coverage.exit

16:                                               ; preds = %10
  %17 = tail call i64 @rb_hash_has_key(i64 noundef %11, i64 noundef %2) #20
  %18 = and i64 %17, -5
  %.not15 = icmp eq i64 %18, 0
  br i1 %.not15, label %19, label %iseq_setup_coverage.exit

19:                                               ; preds = %16
  %20 = tail call ptr @rb_ruby_ast_data_get(i64 noundef %0) #20
  %21 = getelementptr inbounds nuw i8, ptr %20, i64 24
  %22 = load i32, ptr %21, align 8, !tbaa !180
  %23 = add i32 %4, -1
  %24 = add i32 %23, %22
  %25 = icmp sgt i32 %24, -1
  br i1 %25, label %26, label %iseq_setup_coverage.exit

26:                                               ; preds = %19
  %27 = tail call i32 @rb_get_coverage_mode() #20
  %28 = and i32 %27, 8
  %.not.i = icmp eq i32 %28, 0
  %29 = select i1 %.not.i, i32 %24, i32 0
  %30 = tail call i64 @rb_default_coverage(i32 noundef %29) #20
  %31 = tail call i64 @rb_hash_aset(i64 noundef %11, i64 noundef %2, i64 noundef %30) #20
  br label %iseq_setup_coverage.exit

iseq_setup_coverage.exit:                         ; preds = %26, %19, %10, %16, %7
  %32 = tail call ptr @rb_iseq_new_with_opt(i64 noundef %0, i64 noundef %1, i64 noundef %2, i64 noundef %3, i32 noundef %4, ptr noundef %5, i32 noundef %6, i32 noundef 6, ptr noundef nonnull @COMPILE_OPTION_DEFAULT, i64 noundef 4)
  ret ptr %32
}